; Function Attrs: mustprogress uwtable
define hidden void @_ZN8sat2goal2mc9get_unitsER7obj_mapI4exprbE(ptr noundef nonnull align 8 dereferenceable(104) %this, ptr noundef nonnull align 1 %units) unnamed_addr #3 align 2 {
entry:
  tail call void @_ZN8sat2goal2mc9flush_gmcEv(ptr noundef nonnull align 8 dereferenceable(104) %this)
  %m_gmc = getelementptr inbounds i8, ptr %this, i64 80
  %0 = load ptr, ptr %m_gmc, align 8
  %cmp.i.not = icmp eq ptr %0, null
  br i1 %cmp.i.not, label %if.end, label %if.then

if.then:                                          ; preds = %entry
  %vtable = load ptr, ptr %0, align 8
  %vfn = getelementptr inbounds i8, ptr %vtable, i64 72
  %1 = load ptr, ptr %vfn, align 8
  tail call void %1(ptr noundef nonnull align 8 dereferenceable(80) %0, ptr noundef nonnull align 1 %units)
  br label %if.end

if.end:                                           ; preds = %if.then, %entry
  ret void
}